(dp0
S'uhd'
p1
(dp2
S'source'
p3
S'git://https://github.com/EttusResearch/uhd.git'
p4
sS'state'
p5
S'installed'
p6
sS'version'
p7
S'2068af70eee6b6ca831d8bd71764d783e182f913'
p8
ssS'gnuradio'
p9
(dp10
S'source'
p11
S'git://http://www.gnuradio.org/git/gnuradio.git'
p12
sS'state'
p13
S'installed'
p14
sS'version'
p15
S'56f69533d1fa2114cd0a70516bdcc14243cfedfe'
p16
ss.